; Function Attrs: nounwind uwtable
define ptr @l_Std_Range_forIn_x27_loop___at___private_Lean_Elab_Tactic_Conv_Congr_0__Lean_Elab_Tactic_Conv_mkCongrThm___spec__3___boxed(ptr noundef readonly captures(none) %0) local_unnamed_addr #1 {
  %2 = load ptr, ptr %0, align 8, !tbaa !11
  %3 = getelementptr inbounds nuw i8, ptr %0, i64 8
  %4 = load ptr, ptr %3, align 8, !tbaa !11
  %5 = getelementptr inbounds nuw i8, ptr %0, i64 16
  %6 = load ptr, ptr %5, align 8, !tbaa !11
  %7 = getelementptr inbounds nuw i8, ptr %0, i64 24
  %8 = load ptr, ptr %7, align 8, !tbaa !11
  %9 = getelementptr inbounds nuw i8, ptr %0, i64 32
  %10 = load ptr, ptr %9, align 8, !tbaa !11
  %11 = getelementptr inbounds nuw i8, ptr %0, i64 40
  %12 = load ptr, ptr %11, align 8, !tbaa !11
  %13 = getelementptr inbounds nuw i8, ptr %0, i64 48
  %14 = load ptr, ptr %13, align 8, !tbaa !11
  %15 = getelementptr inbounds nuw i8, ptr %0, i64 56
  %16 = load ptr, ptr %15, align 8, !tbaa !11
  %17 = getelementptr inbounds nuw i8, ptr %0, i64 64
  %18 = load ptr, ptr %17, align 8, !tbaa !11
  %19 = getelementptr inbounds nuw i8, ptr %0, i64 72
  %20 = load ptr, ptr %19, align 8, !tbaa !11
  %21 = getelementptr inbounds nuw i8, ptr %0, i64 96
  %22 = load ptr, ptr %21, align 8, !tbaa !11
  %23 = getelementptr inbounds nuw i8, ptr %0, i64 104
  %24 = load ptr, ptr %23, align 8, !tbaa !11
  %25 = getelementptr inbounds nuw i8, ptr %0, i64 112
  %26 = load ptr, ptr %25, align 8, !tbaa !11
  %27 = getelementptr inbounds nuw i8, ptr %0, i64 120
  %28 = load ptr, ptr %27, align 8, !tbaa !11
  %29 = getelementptr inbounds nuw i8, ptr %0, i64 128
  %30 = load ptr, ptr %29, align 8, !tbaa !11
  %31 = ptrtoint ptr %6 to i64
  %32 = lshr i64 %31, 1
  %33 = trunc i64 %32 to i8
  %34 = and i64 %31, 1
  %.not = icmp eq i64 %34, 0
  br i1 %.not, label %35, label %lean_dec.exit48

35:                                               ; preds = %1
  %36 = load i32, ptr %6, align 4, !tbaa !6
  %37 = icmp sgt i32 %36, 1
  br i1 %37, label %38, label %40, !prof !5

38:                                               ; preds = %35
  %39 = add nsw i32 %36, -1
  store i32 %39, ptr %6, align 4, !tbaa !6
  br label %lean_dec.exit48

40:                                               ; preds = %35
  %.not.i = icmp eq i32 %36, 0
  br i1 %.not.i, label %lean_dec.exit48, label %41

41:                                               ; preds = %40
  tail call void @lean_dec_ref_cold(ptr noundef nonnull %6) #4
  br label %lean_dec.exit48

lean_dec.exit48:                                  ; preds = %41, %40, %38, %1
  %42 = ptrtoint ptr %8 to i64
  %43 = lshr i64 %42, 1
  %44 = trunc i64 %43 to i8
  %45 = and i64 %42, 1
  %.not61 = icmp eq i64 %45, 0
  br i1 %.not61, label %46, label %lean_dec.exit47

46:                                               ; preds = %lean_dec.exit48
  %47 = load i32, ptr %8, align 4, !tbaa !6
  %48 = icmp sgt i32 %47, 1
  br i1 %48, label %49, label %51, !prof !5

49:                                               ; preds = %46
  %50 = add nsw i32 %47, -1
  store i32 %50, ptr %8, align 4, !tbaa !6
  br label %lean_dec.exit47

51:                                               ; preds = %46
  %.not.i49 = icmp eq i32 %47, 0
  br i1 %.not.i49, label %lean_dec.exit47, label %52

52:                                               ; preds = %51
  tail call void @lean_dec_ref_cold(ptr noundef nonnull %8) #4
  br label %lean_dec.exit47

lean_dec.exit47:                                  ; preds = %52, %51, %49, %lean_dec.exit48
  %53 = tail call ptr @l_Std_Range_forIn_x27_loop___at___private_Lean_Elab_Tactic_Conv_Congr_0__Lean_Elab_Tactic_Conv_mkCongrThm___spec__3(ptr noundef %2, ptr noundef %4, i8 noundef zeroext %33, i8 noundef zeroext %44, ptr noundef %10, ptr poison, ptr noundef %14, ptr noundef %16, ptr noundef %18, ptr noundef %20, ptr poison, ptr poison, ptr noundef %22, ptr noundef %24, ptr noundef %26, ptr noundef %28, ptr noundef %30)
  %54 = ptrtoint ptr %16 to i64
  %55 = and i64 %54, 1
  %.not62 = icmp eq i64 %55, 0
  br i1 %.not62, label %56, label %lean_dec.exit46

56:                                               ; preds = %lean_dec.exit47
  %57 = load i32, ptr %16, align 4, !tbaa !6
  %58 = icmp sgt i32 %57, 1
  br i1 %58, label %59, label %61, !prof !5

59:                                               ; preds = %56
  %60 = add nsw i32 %57, -1
  store i32 %60, ptr %16, align 4, !tbaa !6
  br label %lean_dec.exit46

61:                                               ; preds = %56
  %.not.i51 = icmp eq i32 %57, 0
  br i1 %.not.i51, label %lean_dec.exit46, label %62

62:                                               ; preds = %61
  tail call void @lean_dec_ref_cold(ptr noundef nonnull %16) #4
  br label %lean_dec.exit46

lean_dec.exit46:                                  ; preds = %62, %61, %59, %lean_dec.exit47
  %63 = ptrtoint ptr %14 to i64
  %64 = and i64 %63, 1
  %.not63 = icmp eq i64 %64, 0
  br i1 %.not63, label %65, label %lean_dec.exit45

65:                                               ; preds = %lean_dec.exit46
  %66 = load i32, ptr %14, align 4, !tbaa !6
  %67 = icmp sgt i32 %66, 1
  br i1 %67, label %68, label %70, !prof !5

68:                                               ; preds = %65
  %69 = add nsw i32 %66, -1
  store i32 %69, ptr %14, align 4, !tbaa !6
  br label %lean_dec.exit45

70:                                               ; preds = %65
  %.not.i53 = icmp eq i32 %66, 0
  br i1 %.not.i53, label %lean_dec.exit45, label %71

71:                                               ; preds = %70
  tail call void @lean_dec_ref_cold(ptr noundef nonnull %14) #4
  br label %lean_dec.exit45

lean_dec.exit45:                                  ; preds = %71, %70, %68, %lean_dec.exit46
  %72 = ptrtoint ptr %12 to i64
  %73 = and i64 %72, 1
  %.not64 = icmp eq i64 %73, 0
  br i1 %.not64, label %74, label %lean_dec.exit44

74:                                               ; preds = %lean_dec.exit45
  %75 = load i32, ptr %12, align 4, !tbaa !6
  %76 = icmp sgt i32 %75, 1
  br i1 %76, label %77, label %79, !prof !5

77:                                               ; preds = %74
  %78 = add nsw i32 %75, -1
  store i32 %78, ptr %12, align 4, !tbaa !6
  br label %lean_dec.exit44

79:                                               ; preds = %74
  %.not.i55 = icmp eq i32 %75, 0
  br i1 %.not.i55, label %lean_dec.exit44, label %80

80:                                               ; preds = %79
  tail call void @lean_dec_ref_cold(ptr noundef nonnull %12) #4
  br label %lean_dec.exit44

lean_dec.exit44:                                  ; preds = %80, %79, %77, %lean_dec.exit45
  %81 = ptrtoint ptr %10 to i64
  %82 = and i64 %81, 1
  %.not65 = icmp eq i64 %82, 0
  br i1 %.not65, label %83, label %lean_dec.exit43

83:                                               ; preds = %lean_dec.exit44
  %84 = load i32, ptr %10, align 4, !tbaa !6
  %85 = icmp sgt i32 %84, 1
  br i1 %85, label %86, label %88, !prof !5

86:                                               ; preds = %83
  %87 = add nsw i32 %84, -1
  store i32 %87, ptr %10, align 4, !tbaa !6
  br label %lean_dec.exit43

88:                                               ; preds = %83
  %.not.i57 = icmp eq i32 %84, 0
  br i1 %.not.i57, label %lean_dec.exit43, label %89

89:                                               ; preds = %88
  tail call void @lean_dec_ref_cold(ptr noundef nonnull %10) #4
  br label %lean_dec.exit43

lean_dec.exit43:                                  ; preds = %89, %88, %86, %lean_dec.exit44
  %90 = ptrtoint ptr %4 to i64
  %91 = and i64 %90, 1
  %.not66 = icmp eq i64 %91, 0
  br i1 %.not66, label %92, label %lean_dec.exit

92:                                               ; preds = %lean_dec.exit43
  %93 = load i32, ptr %4, align 4, !tbaa !6
  %94 = icmp sgt i32 %93, 1
  br i1 %94, label %95, label %97, !prof !5

95:                                               ; preds = %92
  %96 = add nsw i32 %93, -1
  store i32 %96, ptr %4, align 4, !tbaa !6
  br label %lean_dec.exit

97:                                               ; preds = %92
  %.not.i59 = icmp eq i32 %93, 0
  br i1 %.not.i59, label %lean_dec.exit, label %98

98:                                               ; preds = %97
  tail call void @lean_dec_ref_cold(ptr noundef nonnull %4) #4
  br label %lean_dec.exit

lean_dec.exit:                                    ; preds = %98, %97, %95, %lean_dec.exit43
  ret ptr %53
}